target datalayout = "e-m:e-p270:32:32-p271:32:32-p272:64:64-i64:64-i128:128-f80:128-n8:16:32:64-S128"
target triple = "x86_64-pc-linux-gnu"

; Function Attrs: alwaysinline nounwind willreturn memory(none) uwtable
define internal zeroext i8 @av_clip_uint8_c(i32 noundef %0) #3 {
  %2 = alloca i8, align 1
  %3 = alloca i32, align 4
  store i32 %0, ptr %3, align 4, !tbaa !9
  %4 = load i32, ptr %3, align 4, !tbaa !9
  %5 = and i32 %4, -256
  %6 = icmp ne i32 %5, 0
  br i1 %6, label %7, label %12

7:                                                ; preds = %1
  %8 = load i32, ptr %3, align 4, !tbaa !9
  %9 = xor i32 %8, -1
  %10 = ashr i32 %9, 31
  %11 = trunc i32 %10 to i8
  store i8 %11, ptr %2, align 1
  br label %15

12:                                               ; preds = %1
  %13 = load i32, ptr %3, align 4, !tbaa !9
  %14 = trunc i32 %13 to i8
  store i8 %14, ptr %2, align 1
  br label %15

15:                                               ; preds = %12, %7
  %16 = load i8, ptr %2, align 1
  ret i8 %16
}

; Function Attrs: nounwind uwtable
define internal void @put_uni_luma_v_8(ptr noundef %0, i64 noundef %1, ptr noundef %2, i64 noundef %3, i32 noundef %4, ptr noundef %5, ptr noundef %6, i32 noundef %7) #0 {
  %9 = alloca ptr, align 8
  %10 = alloca i64, align 8
  %11 = alloca ptr, align 8
  %12 = alloca i64, align 8
  %13 = alloca i32, align 4
  %14 = alloca ptr, align 8
  %15 = alloca ptr, align 8
  %16 = alloca i32, align 4
  %17 = alloca ptr, align 8
  %18 = alloca ptr, align 8
  %19 = alloca i64, align 8
  %20 = alloca i64, align 8
  %21 = alloca ptr, align 8
  %22 = alloca i32, align 4
  %23 = alloca i32, align 4
  %24 = alloca i32, align 4
  %25 = alloca i32, align 4
  %26 = alloca i32, align 4
  %27 = alloca i32, align 4
  store ptr %0, ptr %9, align 8, !tbaa !144
  store i64 %1, ptr %10, align 8, !tbaa !146
  store ptr %2, ptr %11, align 8, !tbaa !144
  store i64 %3, ptr %12, align 8, !tbaa !146
  store i32 %4, ptr %13, align 4, !tbaa !9
  store ptr %5, ptr %14, align 8, !tbaa !144
  store ptr %6, ptr %15, align 8, !tbaa !144
  store i32 %7, ptr %16, align 4, !tbaa !9
  call void @llvm.lifetime.start.p0(i64 8, ptr %17) #8
  %28 = load ptr, ptr %11, align 8, !tbaa !144
  store ptr %28, ptr %17, align 8, !tbaa !144
  call void @llvm.lifetime.start.p0(i64 8, ptr %18) #8
  %29 = load ptr, ptr %9, align 8, !tbaa !144
  store ptr %29, ptr %18, align 8, !tbaa !144
  call void @llvm.lifetime.start.p0(i64 8, ptr %19) #8
  %30 = load i64, ptr %12, align 8, !tbaa !146
  %31 = udiv i64 %30, 1
  store i64 %31, ptr %19, align 8, !tbaa !146
  call void @llvm.lifetime.start.p0(i64 8, ptr %20) #8
  %32 = load i64, ptr %10, align 8, !tbaa !146
  %33 = udiv i64 %32, 1
  store i64 %33, ptr %20, align 8, !tbaa !146
  call void @llvm.lifetime.start.p0(i64 8, ptr %21) #8
  %34 = load ptr, ptr %15, align 8, !tbaa !144
  store ptr %34, ptr %21, align 8, !tbaa !144
  call void @llvm.lifetime.start.p0(i64 4, ptr %22) #8
  store i32 6, ptr %22, align 4, !tbaa !9
  call void @llvm.lifetime.start.p0(i64 4, ptr %23) #8
  store i32 32, ptr %23, align 4, !tbaa !9
  call void @llvm.lifetime.start.p0(i64 4, ptr %24) #8
  store i32 0, ptr %24, align 4, !tbaa !9
  br label %35

35:                                               ; preds = %180, %8
  %36 = load i32, ptr %24, align 4, !tbaa !9
  %37 = load i32, ptr %13, align 4, !tbaa !9
  %38 = icmp slt i32 %36, %37
  br i1 %38, label %40, label %39

39:                                               ; preds = %35
  store i32 2, ptr %25, align 4
  call void @llvm.lifetime.end.p0(i64 4, ptr %24) #8
  br label %183

40:                                               ; preds = %35
  call void @llvm.lifetime.start.p0(i64 4, ptr %26) #8
  store i32 0, ptr %26, align 4, !tbaa !9
  br label %41

41:                                               ; preds = %170, %40
  %42 = load i32, ptr %26, align 4, !tbaa !9
  %43 = load i32, ptr %16, align 4, !tbaa !9
  %44 = icmp slt i32 %42, %43
  br i1 %44, label %46, label %45

45:                                               ; preds = %41
  store i32 5, ptr %25, align 4
  call void @llvm.lifetime.end.p0(i64 4, ptr %26) #8
  br label %173

46:                                               ; preds = %41
  call void @llvm.lifetime.start.p0(i64 4, ptr %27) #8
  %47 = load ptr, ptr %21, align 8, !tbaa !144
  %48 = getelementptr inbounds i8, ptr %47, i64 0
  %49 = load i8, ptr %48, align 1, !tbaa !152
  %50 = sext i8 %49 to i32
  %51 = load ptr, ptr %17, align 8, !tbaa !144
  %52 = load i32, ptr %26, align 4, !tbaa !9
  %53 = sext i32 %52 to i64
  %54 = load i64, ptr %19, align 8, !tbaa !146
  %55 = mul nsw i64 3, %54
  %56 = sub nsw i64 %53, %55
  %57 = getelementptr inbounds i8, ptr %51, i64 %56
  %58 = load i8, ptr %57, align 1, !tbaa !152
  %59 = zext i8 %58 to i32
  %60 = mul nsw i32 %50, %59
  %61 = load ptr, ptr %21, align 8, !tbaa !144
  %62 = getelementptr inbounds i8, ptr %61, i64 1
  %63 = load i8, ptr %62, align 1, !tbaa !152
  %64 = sext i8 %63 to i32
  %65 = load ptr, ptr %17, align 8, !tbaa !144
  %66 = load i32, ptr %26, align 4, !tbaa !9
  %67 = sext i32 %66 to i64
  %68 = load i64, ptr %19, align 8, !tbaa !146
  %69 = mul nsw i64 2, %68
  %70 = sub nsw i64 %67, %69
  %71 = getelementptr inbounds i8, ptr %65, i64 %70
  %72 = load i8, ptr %71, align 1, !tbaa !152
  %73 = zext i8 %72 to i32
  %74 = mul nsw i32 %64, %73
  %75 = add nsw i32 %60, %74
  %76 = load ptr, ptr %21, align 8, !tbaa !144
  %77 = getelementptr inbounds i8, ptr %76, i64 2
  %78 = load i8, ptr %77, align 1, !tbaa !152
  %79 = sext i8 %78 to i32
  %80 = load ptr, ptr %17, align 8, !tbaa !144
  %81 = load i32, ptr %26, align 4, !tbaa !9
  %82 = sext i32 %81 to i64
  %83 = load i64, ptr %19, align 8, !tbaa !146
  %84 = sub nsw i64 %82, %83
  %85 = getelementptr inbounds i8, ptr %80, i64 %84
  %86 = load i8, ptr %85, align 1, !tbaa !152
  %87 = zext i8 %86 to i32
  %88 = mul nsw i32 %79, %87
  %89 = add nsw i32 %75, %88
  %90 = load ptr, ptr %21, align 8, !tbaa !144
  %91 = getelementptr inbounds i8, ptr %90, i64 3
  %92 = load i8, ptr %91, align 1, !tbaa !152
  %93 = sext i8 %92 to i32
  %94 = load ptr, ptr %17, align 8, !tbaa !144
  %95 = load i32, ptr %26, align 4, !tbaa !9
  %96 = sext i32 %95 to i64
  %97 = getelementptr inbounds i8, ptr %94, i64 %96
  %98 = load i8, ptr %97, align 1, !tbaa !152
  %99 = zext i8 %98 to i32
  %100 = mul nsw i32 %93, %99
  %101 = add nsw i32 %89, %100
  %102 = load ptr, ptr %21, align 8, !tbaa !144
  %103 = getelementptr inbounds i8, ptr %102, i64 4
  %104 = load i8, ptr %103, align 1, !tbaa !152
  %105 = sext i8 %104 to i32
  %106 = load ptr, ptr %17, align 8, !tbaa !144
  %107 = load i32, ptr %26, align 4, !tbaa !9
  %108 = sext i32 %107 to i64
  %109 = load i64, ptr %19, align 8, !tbaa !146
  %110 = add nsw i64 %108, %109
  %111 = getelementptr inbounds i8, ptr %106, i64 %110
  %112 = load i8, ptr %111, align 1, !tbaa !152
  %113 = zext i8 %112 to i32
  %114 = mul nsw i32 %105, %113
  %115 = add nsw i32 %101, %114
  %116 = load ptr, ptr %21, align 8, !tbaa !144
  %117 = getelementptr inbounds i8, ptr %116, i64 5
  %118 = load i8, ptr %117, align 1, !tbaa !152
  %119 = sext i8 %118 to i32
  %120 = load ptr, ptr %17, align 8, !tbaa !144
  %121 = load i32, ptr %26, align 4, !tbaa !9
  %122 = sext i32 %121 to i64
  %123 = load i64, ptr %19, align 8, !tbaa !146
  %124 = mul nsw i64 2, %123
  %125 = add nsw i64 %122, %124
  %126 = getelementptr inbounds i8, ptr %120, i64 %125
  %127 = load i8, ptr %126, align 1, !tbaa !152
  %128 = zext i8 %127 to i32
  %129 = mul nsw i32 %119, %128
  %130 = add nsw i32 %115, %129
  %131 = load ptr, ptr %21, align 8, !tbaa !144
  %132 = getelementptr inbounds i8, ptr %131, i64 6
  %133 = load i8, ptr %132, align 1, !tbaa !152
  %134 = sext i8 %133 to i32
  %135 = load ptr, ptr %17, align 8, !tbaa !144
  %136 = load i32, ptr %26, align 4, !tbaa !9
  %137 = sext i32 %136 to i64
  %138 = load i64, ptr %19, align 8, !tbaa !146
  %139 = mul nsw i64 3, %138
  %140 = add nsw i64 %137, %139
  %141 = getelementptr inbounds i8, ptr %135, i64 %140
  %142 = load i8, ptr %141, align 1, !tbaa !152
  %143 = zext i8 %142 to i32
  %144 = mul nsw i32 %134, %143
  %145 = add nsw i32 %130, %144
  %146 = load ptr, ptr %21, align 8, !tbaa !144
  %147 = getelementptr inbounds i8, ptr %146, i64 7
  %148 = load i8, ptr %147, align 1, !tbaa !152
  %149 = sext i8 %148 to i32
  %150 = load ptr, ptr %17, align 8, !tbaa !144
  %151 = load i32, ptr %26, align 4, !tbaa !9
  %152 = sext i32 %151 to i64
  %153 = load i64, ptr %19, align 8, !tbaa !146
  %154 = mul nsw i64 4, %153
  %155 = add nsw i64 %152, %154
  %156 = getelementptr inbounds i8, ptr %150, i64 %155
  %157 = load i8, ptr %156, align 1, !tbaa !152
  %158 = zext i8 %157 to i32
  %159 = mul nsw i32 %149, %158
  %160 = add nsw i32 %145, %159
  %161 = ashr i32 %160, 0
  store i32 %161, ptr %27, align 4, !tbaa !9
  %162 = load i32, ptr %27, align 4, !tbaa !9
  %163 = add nsw i32 %162, 32
  %164 = ashr i32 %163, 6
  %165 = call zeroext i8 @av_clip_uint8_c(i32 noundef %164) #9
  %166 = load ptr, ptr %18, align 8, !tbaa !144
  %167 = load i32, ptr %26, align 4, !tbaa !9
  %168 = sext i32 %167 to i64
  %169 = getelementptr inbounds i8, ptr %166, i64 %168
  store i8 %165, ptr %169, align 1, !tbaa !152
  call void @llvm.lifetime.end.p0(i64 4, ptr %27) #8
  br label %170

170:                                              ; preds = %46
  %171 = load i32, ptr %26, align 4, !tbaa !9
  %172 = add nsw i32 %171, 1
  store i32 %172, ptr %26, align 4, !tbaa !9
  br label %41, !llvm.loop !703

173:                                              ; preds = %45
  %174 = load i64, ptr %19, align 8, !tbaa !146
  %175 = load ptr, ptr %17, align 8, !tbaa !144
  %176 = getelementptr inbounds i8, ptr %175, i64 %174
  store ptr %176, ptr %17, align 8, !tbaa !144
  %177 = load i64, ptr %20, align 8, !tbaa !146
  %178 = load ptr, ptr %18, align 8, !tbaa !144
  %179 = getelementptr inbounds i8, ptr %178, i64 %177
  store ptr %179, ptr %18, align 8, !tbaa !144
  br label %180

180:                                              ; preds = %173
  %181 = load i32, ptr %24, align 4, !tbaa !9
  %182 = add nsw i32 %181, 1
  store i32 %182, ptr %24, align 4, !tbaa !9
  br label %35, !llvm.loop !704

183:                                              ; preds = %39
  call void @llvm.lifetime.end.p0(i64 4, ptr %23) #8
  call void @llvm.lifetime.end.p0(i64 4, ptr %22) #8
  call void @llvm.lifetime.end.p0(i64 8, ptr %21) #8
  call void @llvm.lifetime.end.p0(i64 8, ptr %20) #8
  call void @llvm.lifetime.end.p0(i64 8, ptr %19) #8
  call void @llvm.lifetime.end.p0(i64 8, ptr %18) #8
  call void @llvm.lifetime.end.p0(i64 8, ptr %17) #8
  ret void
}