; Function Attrs: nofree norecurse nosync nounwind memory(argmem: readwrite) uwtable
define internal void @put_uni_luma_v_8(ptr noundef writeonly captures(none) %0, i64 noundef %1, ptr noundef readonly captures(none) %2, i64 noundef %3, i32 noundef %4, ptr readnone captures(none) %5, ptr noundef readonly captures(none) %6, i32 noundef %7) #2 {
  %9 = icmp sgt i32 %4, 0
  br i1 %9, label %.preheader.lr.ph, label %._crit_edge55

.preheader.lr.ph:                                 ; preds = %8
  %10 = icmp sgt i32 %7, 0
  %11 = mul nsw i64 %3, 3
  %12 = getelementptr inbounds nuw i8, ptr %6, i64 1
  %13 = shl nsw i64 %3, 1
  %14 = getelementptr inbounds nuw i8, ptr %6, i64 2
  %15 = getelementptr inbounds nuw i8, ptr %6, i64 3
  %16 = getelementptr inbounds nuw i8, ptr %6, i64 4
  %17 = getelementptr inbounds nuw i8, ptr %6, i64 5
  %18 = getelementptr inbounds nuw i8, ptr %6, i64 6
  %19 = getelementptr inbounds nuw i8, ptr %6, i64 7
  %20 = shl nsw i64 %3, 2
  br i1 %10, label %.preheader.us.preheader, label %._crit_edge55

.preheader.us.preheader:                          ; preds = %.preheader.lr.ph
  %wide.trip.count = zext nneg i32 %7 to i64
  br label %.preheader.us

.preheader.us:                                    ; preds = %.preheader.us.preheader, %._crit_edge.us
  %.054.us = phi ptr [ %21, %._crit_edge.us ], [ %2, %.preheader.us.preheader ]
  %.04953.us = phi i32 [ %90, %._crit_edge.us ], [ 0, %.preheader.us.preheader ]
  %.05052.us = phi ptr [ %89, %._crit_edge.us ], [ %0, %.preheader.us.preheader ]
  %21 = getelementptr i8, ptr %.054.us, i64 %3
  %22 = getelementptr i8, ptr %.054.us, i64 %13
  %23 = getelementptr i8, ptr %.054.us, i64 %11
  %24 = getelementptr i8, ptr %.054.us, i64 %20
  br label %25

25:                                               ; preds = %.preheader.us, %25
  %indvars.iv = phi i64 [ 0, %.preheader.us ], [ %indvars.iv.next, %25 ]
  %26 = load i8, ptr %6, align 1, !tbaa !128
  %27 = sext i8 %26 to i32
  %28 = sub nsw i64 %indvars.iv, %11
  %29 = getelementptr inbounds i8, ptr %.054.us, i64 %28
  %30 = load i8, ptr %29, align 1, !tbaa !128
  %31 = zext i8 %30 to i32
  %32 = mul nsw i32 %31, %27
  %33 = load i8, ptr %12, align 1, !tbaa !128
  %34 = sext i8 %33 to i32
  %35 = sub nsw i64 %indvars.iv, %13
  %36 = getelementptr inbounds i8, ptr %.054.us, i64 %35
  %37 = load i8, ptr %36, align 1, !tbaa !128
  %38 = zext i8 %37 to i32
  %39 = mul nsw i32 %38, %34
  %40 = load i8, ptr %14, align 1, !tbaa !128
  %41 = sext i8 %40 to i32
  %42 = sub nsw i64 %indvars.iv, %3
  %43 = getelementptr inbounds i8, ptr %.054.us, i64 %42
  %44 = load i8, ptr %43, align 1, !tbaa !128
  %45 = zext i8 %44 to i32
  %46 = mul nsw i32 %45, %41
  %47 = load i8, ptr %15, align 1, !tbaa !128
  %48 = sext i8 %47 to i32
  %49 = getelementptr inbounds nuw i8, ptr %.054.us, i64 %indvars.iv
  %50 = load i8, ptr %49, align 1, !tbaa !128
  %51 = zext i8 %50 to i32
  %52 = mul nsw i32 %51, %48
  %53 = load i8, ptr %16, align 1, !tbaa !128
  %54 = sext i8 %53 to i32
  %55 = getelementptr i8, ptr %21, i64 %indvars.iv
  %56 = load i8, ptr %55, align 1, !tbaa !128
  %57 = zext i8 %56 to i32
  %58 = mul nsw i32 %57, %54
  %59 = load i8, ptr %17, align 1, !tbaa !128
  %60 = sext i8 %59 to i32
  %61 = getelementptr i8, ptr %22, i64 %indvars.iv
  %62 = load i8, ptr %61, align 1, !tbaa !128
  %63 = zext i8 %62 to i32
  %64 = mul nsw i32 %63, %60
  %65 = load i8, ptr %18, align 1, !tbaa !128
  %66 = sext i8 %65 to i32
  %67 = getelementptr i8, ptr %23, i64 %indvars.iv
  %68 = load i8, ptr %67, align 1, !tbaa !128
  %69 = zext i8 %68 to i32
  %70 = mul nsw i32 %69, %66
  %71 = load i8, ptr %19, align 1, !tbaa !128
  %72 = sext i8 %71 to i32
  %73 = getelementptr i8, ptr %24, i64 %indvars.iv
  %74 = load i8, ptr %73, align 1, !tbaa !128
  %75 = zext i8 %74 to i32
  %76 = mul nsw i32 %75, %72
  %77 = add nsw i32 %32, 32
  %78 = add nsw i32 %77, %39
  %79 = add nsw i32 %78, %46
  %80 = add nsw i32 %79, %52
  %81 = add nsw i32 %80, %58
  %82 = add nsw i32 %81, %64
  %83 = add nsw i32 %82, %70
  %84 = add nsw i32 %83, %76
  %85 = ashr i32 %84, 6
  %.not.i.us = icmp ult i32 %85, 256
  %isnotneg.i.us = icmp sgt i32 %85, -1
  %86 = sext i1 %isnotneg.i.us to i8
  %87 = trunc nuw i32 %85 to i8
  %.0.i.us = select i1 %.not.i.us, i8 %87, i8 %86
  %88 = getelementptr inbounds nuw i8, ptr %.05052.us, i64 %indvars.iv
  store i8 %.0.i.us, ptr %88, align 1, !tbaa !128
  %indvars.iv.next = add nuw nsw i64 %indvars.iv, 1
  %exitcond.not = icmp eq i64 %indvars.iv.next, %wide.trip.count
  br i1 %exitcond.not, label %._crit_edge.us, label %25, !llvm.loop !666

._crit_edge.us:                                   ; preds = %25
  %89 = getelementptr inbounds i8, ptr %.05052.us, i64 %1
  %90 = add nuw nsw i32 %.04953.us, 1
  %exitcond58.not = icmp eq i32 %90, %4
  br i1 %exitcond58.not, label %._crit_edge55, label %.preheader.us, !llvm.loop !667

._crit_edge55:                                    ; preds = %._crit_edge.us, %.preheader.lr.ph, %8
  ret void
}